
kernel.elf:     file format elf64-littleaarch64


Disassembly of section .note.gnu.build-id:

0000000000080000 <__start>:
   80000:	00000004 	.inst	0x00000004 ; undefined
   80004:	00000014 	.inst	0x00000014 ; undefined
   80008:	00000003 	.inst	0x00000003 ; undefined
   8000c:	00554e47 	.inst	0x00554e47 ; undefined
   80010:	a84ef1ff 	ldnp	xzr, x28, [x15, #232]
   80014:	47750b91 	.inst	0x47750b91 ; undefined
   80018:	f7996f25 	.inst	0xf7996f25 ; undefined
   8001c:	2e006d70 	.inst	0x2e006d70 ; undefined
   80020:	2007779a 	.inst	0x2007779a ; undefined

Disassembly of section .text:

0000000000080030 <_start>:
   80030:	d53800a1 	mrs	x1, mpidr_el1
   80034:	92400421 	and	x1, x1, #0x3
   80038:	f100003f 	cmp	x1, #0x0
   8003c:	54000361 	b.ne	800a8 <hang>  // b.any
   80040:	580003c1 	ldr	x1, 800b8 <hang+0x10>
   80044:	d280b622 	mov	x2, #0x5b1                 	// #1457
   80048:	d51e1102 	msr	scr_el3, x2
   8004c:	d2807922 	mov	x2, #0x3c9                 	// #969
   80050:	d51e4002 	msr	spsr_el3, x2
   80054:	10000062 	adr	x2, 80060 <start_el2>
   80058:	d51e4022 	msr	elr_el3, x2
   8005c:	d69f03e0 	eret

0000000000080060 <start_el2>:
   80060:	d51c4101 	msr	sp_el1, x1
   80064:	d2b00000 	mov	x0, #0x80000000            	// #2147483648
   80068:	b27f0000 	orr	x0, x0, #0x2
   8006c:	d51c1100 	msr	hcr_el2, x0
   80070:	d53c1100 	mrs	x0, hcr_el2
   80074:	d28078a2 	mov	x2, #0x3c5                 	// #965
   80078:	d51c4002 	msr	spsr_el2, x2
   8007c:	10000062 	adr	x2, 80088 <start_el1>
   80080:	d51c4022 	msr	elr_el2, x2
   80084:	d69f03e0 	eret

0000000000080088 <start_el1>:
   80088:	9100003f 	mov	sp, x1
   8008c:	580001a1 	ldr	x1, 800c0 <hang+0x18>
   80090:	18000102 	ldr	w2, 800b0 <hang+0x8>
   80094:	34000082 	cbz	w2, 800a4 <start_el1+0x1c>
   80098:	f800843f 	str	xzr, [x1], #8
   8009c:	51000442 	sub	w2, w2, #0x1
   800a0:	35ffffa2 	cbnz	w2, 80094 <start_el1+0xc>
   800a4:	940001f7 	bl	80880 <kernel_main>

00000000000800a8 <hang>:
   800a8:	d503207f 	wfi
   800ac:	17ffffff 	b	800a8 <hang>
   800b0:	00000200 	.word	0x00000200
   800b4:	00000000 	.inst	0x00000000 ; undefined
   800b8:	00080030 	.word	0x00080030
   800bc:	00000000 	.word	0x00000000
   800c0:	00081000 	.word	0x00081000
	...

00000000000800d0 <uart_putc>:
   800d0:	12001c00 	and	w0, w0, #0xff
   800d4:	d2820302 	mov	x2, #0x1018                	// #4120
   800d8:	f2a7e402 	movk	x2, #0x3f20, lsl #16
   800dc:	d503201f 	nop
   800e0:	b9400041 	ldr	w1, [x2]
   800e4:	372fffe1 	tbnz	w1, #5, 800e0 <uart_putc+0x10>
   800e8:	d2820001 	mov	x1, #0x1000                	// #4096
   800ec:	f2a7e401 	movk	x1, #0x3f20, lsl #16
   800f0:	b9000020 	str	w0, [x1]
   800f4:	d65f03c0 	ret
   800f8:	d503201f 	nop
   800fc:	d503201f 	nop

0000000000080100 <uart_puts>:
   80100:	a9be7bfd 	stp	x29, x30, [sp, #-32]!
   80104:	910003fd 	mov	x29, sp
   80108:	f9000bf3 	str	x19, [sp, #16]
   8010c:	aa0003f3 	mov	x19, x0
   80110:	39400000 	ldrb	w0, [x0]
   80114:	340000c0 	cbz	w0, 8012c <uart_puts+0x2c>
   80118:	91000673 	add	x19, x19, #0x1
   8011c:	d503201f 	nop
   80120:	97ffffec 	bl	800d0 <uart_putc>
   80124:	38401660 	ldrb	w0, [x19], #1
   80128:	35ffffc0 	cbnz	w0, 80120 <uart_puts+0x20>
   8012c:	f9400bf3 	ldr	x19, [sp, #16]
   80130:	a8c27bfd 	ldp	x29, x30, [sp], #32
   80134:	d65f03c0 	ret
   80138:	d503201f 	nop
   8013c:	d503201f 	nop

0000000000080140 <uart_hex>:
   80140:	a9bd7bfd 	stp	x29, x30, [sp, #-48]!
   80144:	910003fd 	mov	x29, sp
   80148:	a90153f3 	stp	x19, x20, [sp, #16]
   8014c:	90000014 	adrp	x20, 80000 <__start>
   80150:	9122c294 	add	x20, x20, #0x8b0
   80154:	f90013f5 	str	x21, [sp, #32]
   80158:	aa0003f5 	mov	x21, x0
   8015c:	52800793 	mov	w19, #0x3c                  	// #60
   80160:	9ad326a0 	lsr	x0, x21, x19
   80164:	92400c00 	and	x0, x0, #0xf
   80168:	51001273 	sub	w19, w19, #0x4
   8016c:	38606a80 	ldrb	w0, [x20, x0]
   80170:	97ffffd8 	bl	800d0 <uart_putc>
   80174:	3100127f 	cmn	w19, #0x4
   80178:	54ffff41 	b.ne	80160 <uart_hex+0x20>  // b.any
   8017c:	a94153f3 	ldp	x19, x20, [sp, #16]
   80180:	f94013f5 	ldr	x21, [sp, #32]
   80184:	a8c37bfd 	ldp	x29, x30, [sp], #48
   80188:	d65f03c0 	ret
   8018c:	d503201f 	nop

0000000000080190 <uart_dump>:
   80190:	a9bb7bfd 	stp	x29, x30, [sp, #-80]!
   80194:	910003fd 	mov	x29, sp
   80198:	f90023f9 	str	x25, [sp, #64]
   8019c:	91080019 	add	x25, x0, #0x200
   801a0:	eb00033f 	cmp	x25, x0
   801a4:	54000709 	b.ls	80284 <uart_dump+0xf4>  // b.plast
   801a8:	a9025bb5 	stp	x21, x22, [x29, #32]
   801ac:	aa0003f5 	mov	x21, x0
   801b0:	a90363b7 	stp	x23, x24, [x29, #48]
   801b4:	90000018 	adrp	x24, 80000 <__start>
   801b8:	91232318 	add	x24, x24, #0x8c8
   801bc:	a90153b3 	stp	x19, x20, [x29, #16]
   801c0:	d28006f7 	mov	x23, #0x37                  	// #55
   801c4:	d2800616 	mov	x22, #0x30                  	// #48
   801c8:	aa1503e0 	mov	x0, x21
   801cc:	97ffffdd 	bl	80140 <uart_hex>
   801d0:	d2800014 	mov	x20, #0x0                   	// #0
   801d4:	aa1803e0 	mov	x0, x24
   801d8:	97ffffca 	bl	80100 <uart_puts>
   801dc:	14000003 	b	801e8 <uart_dump+0x58>
   801e0:	f100429f 	cmp	x20, #0x10
   801e4:	540002e0 	b.eq	80240 <uart_dump+0xb0>  // b.none
   801e8:	38746ab3 	ldrb	w19, [x21, x20]
   801ec:	d3441e61 	ubfx	x1, x19, #4, #4
   801f0:	12000e73 	and	w19, w19, #0xf
   801f4:	f100243f 	cmp	x1, #0x9
   801f8:	9a9682e0 	csel	x0, x23, x22, hi  // hi = pmore
   801fc:	8b010000 	add	x0, x0, x1
   80200:	97ffffb4 	bl	800d0 <uart_putc>
   80204:	71002a7f 	cmp	w19, #0xa
   80208:	92401e73 	and	x19, x19, #0xff
   8020c:	9a9732c0 	csel	x0, x22, x23, cc  // cc = lo, ul, last
   80210:	8b130000 	add	x0, x0, x19
   80214:	97ffffaf 	bl	800d0 <uart_putc>
   80218:	52800400 	mov	w0, #0x20                  	// #32
   8021c:	97ffffad 	bl	800d0 <uart_putc>
   80220:	92400680 	and	x0, x20, #0x3
   80224:	91000694 	add	x20, x20, #0x1
   80228:	f1000c1f 	cmp	x0, #0x3
   8022c:	54fffda1 	b.ne	801e0 <uart_dump+0x50>  // b.any
   80230:	52800400 	mov	w0, #0x20                  	// #32
   80234:	97ffffa7 	bl	800d0 <uart_putc>
   80238:	f100429f 	cmp	x20, #0x10
   8023c:	54fffd61 	b.ne	801e8 <uart_dump+0x58>  // b.any
   80240:	910042b4 	add	x20, x21, #0x10
   80244:	528005d3 	mov	w19, #0x2e                  	// #46
   80248:	384016a0 	ldrb	w0, [x21], #1
   8024c:	51008001 	sub	w1, w0, #0x20
   80250:	12001c21 	and	w1, w1, #0xff
   80254:	71017c3f 	cmp	w1, #0x5f
   80258:	1a933000 	csel	w0, w0, w19, cc  // cc = lo, ul, last
   8025c:	97ffff9d 	bl	800d0 <uart_putc>
   80260:	eb15029f 	cmp	x20, x21
   80264:	54ffff21 	b.ne	80248 <uart_dump+0xb8>  // b.any
   80268:	52800140 	mov	w0, #0xa                   	// #10
   8026c:	97ffff99 	bl	800d0 <uart_putc>
   80270:	eb15033f 	cmp	x25, x21
   80274:	54fffaa8 	b.hi	801c8 <uart_dump+0x38>  // b.pmore
   80278:	a94153b3 	ldp	x19, x20, [x29, #16]
   8027c:	a9425bb5 	ldp	x21, x22, [x29, #32]
   80280:	a94363b7 	ldp	x23, x24, [x29, #48]
   80284:	f94023f9 	ldr	x25, [sp, #64]
   80288:	a8c57bfd 	ldp	x29, x30, [sp], #80
   8028c:	d65f03c0 	ret

0000000000080290 <wait_cycles>:
   80290:	340000c0 	cbz	w0, 802a8 <wait_cycles+0x18>
   80294:	51000400 	sub	w0, w0, #0x1
   80298:	d503201f 	nop
   8029c:	51000400 	sub	w0, w0, #0x1
   802a0:	3100041f 	cmn	w0, #0x1
   802a4:	54ffffa1 	b.ne	80298 <wait_cycles+0x8>  // b.any
   802a8:	d65f03c0 	ret
   802ac:	d503201f 	nop

00000000000802b0 <wait_msec>:
   802b0:	d65f03c0 	ret
   802b4:	d503201f 	nop
   802b8:	d503201f 	nop
   802bc:	d503201f 	nop

00000000000802c0 <sdhost_cmd>:
   802c0:	a9bc7bfd 	stp	x29, x30, [sp, #-64]!
   802c4:	d2840082 	mov	x2, #0x2004                	// #8196
   802c8:	f2a7e402 	movk	x2, #0x3f20, lsl #16
   802cc:	910003fd 	mov	x29, sp
   802d0:	a90153f3 	stp	x19, x20, [sp, #16]
   802d4:	2a0103f3 	mov	w19, w1
   802d8:	f90013f5 	str	x21, [sp, #32]
   802dc:	72003c14 	ands	w20, w0, #0xffff
   802e0:	b9000041 	str	w1, [x2]
   802e4:	540002e0 	b.eq	80340 <sdhost_cmd+0x80>  // b.none
   802e8:	a902dfb6 	stp	x22, x23, [x29, #40]
   802ec:	71000a9f 	cmp	w20, #0x2
   802f0:	f9001fb8 	str	x24, [x29, #56]
   802f4:	54001220 	b.eq	80538 <sdhost_cmd+0x278>  // b.none
   802f8:	71001e9f 	cmp	w20, #0x7
   802fc:	54001500 	b.eq	8059c <sdhost_cmd+0x2dc>  // b.none
   80300:	7100469f 	cmp	w20, #0x11
   80304:	54000540 	b.eq	803ac <sdhost_cmd+0xec>  // b.none
   80308:	12002696 	and	w22, w20, #0x3ff
   8030c:	7100ce9f 	cmp	w20, #0x33
   80310:	540016e1 	b.ne	805ec <sdhost_cmd+0x32c>  // b.any
   80314:	d2840a00 	mov	x0, #0x2050                	// #8272
   80318:	f2a7e400 	movk	x0, #0x3f20, lsl #16
   8031c:	52800103 	mov	w3, #0x8                   	// #8
   80320:	b9003843 	str	w3, [x2, #56]
   80324:	52800021 	mov	w1, #0x1                   	// #1
   80328:	52800e76 	mov	w22, #0x73                  	// #115
   8032c:	d2900818 	mov	x24, #0x8040                	// #32832
   80330:	d2800677 	mov	x23, #0x33                  	// #51
   80334:	52900e75 	mov	w21, #0x8073                	// #32883
   80338:	b9000001 	str	w1, [x0]
   8033c:	14000083 	b	80548 <sdhost_cmd+0x288>
   80340:	90000000 	adrp	x0, 80000 <__start>
   80344:	91240000 	add	x0, x0, #0x900
   80348:	97ffff6e 	bl	80100 <uart_puts>
   8034c:	d2800015 	mov	x21, #0x0                   	// #0
   80350:	d2908000 	mov	x0, #0x8400                	// #33792
   80354:	97ffff7b 	bl	80140 <uart_hex>
   80358:	90000000 	adrp	x0, 80000 <__start>
   8035c:	91242000 	add	x0, x0, #0x908
   80360:	97ffff68 	bl	80100 <uart_puts>
   80364:	d2800000 	mov	x0, #0x0                   	// #0
   80368:	97ffff76 	bl	80140 <uart_hex>
   8036c:	90000000 	adrp	x0, 80000 <__start>
   80370:	91244000 	add	x0, x0, #0x910
   80374:	97ffff63 	bl	80100 <uart_puts>
   80378:	2a1303e0 	mov	w0, w19
   8037c:	97ffff71 	bl	80140 <uart_hex>
   80380:	52800140 	mov	w0, #0xa                   	// #10
   80384:	97ffff53 	bl	800d0 <uart_putc>
   80388:	d2840000 	mov	x0, #0x2000                	// #8192
   8038c:	f2a7e400 	movk	x0, #0x3f20, lsl #16
   80390:	52908001 	mov	w1, #0x8400                	// #33792
   80394:	b9000001 	str	w1, [x0]
   80398:	aa1503e0 	mov	x0, x21
   8039c:	a94153f3 	ldp	x19, x20, [sp, #16]
   803a0:	f94013f5 	ldr	x21, [sp, #32]
   803a4:	a8c47bfd 	ldp	x29, x30, [sp], #64
   803a8:	d65f03c0 	ret
   803ac:	d2840782 	mov	x2, #0x203c                	// #8252
   803b0:	f2a7e402 	movk	x2, #0x3f20, lsl #16
   803b4:	d2840a00 	mov	x0, #0x2050                	// #8272
   803b8:	f2a7e400 	movk	x0, #0x3f20, lsl #16
   803bc:	52804003 	mov	w3, #0x200                 	// #512
   803c0:	b9000043 	str	w3, [x2]
   803c4:	52800021 	mov	w1, #0x1                   	// #1
   803c8:	52900a38 	mov	w24, #0x8051                	// #32849
   803cc:	d2800237 	mov	x23, #0x11                  	// #17
   803d0:	d2900815 	mov	x21, #0x8040                	// #32832
   803d4:	52800a36 	mov	w22, #0x51                  	// #81
   803d8:	b9000001 	str	w1, [x0]
   803dc:	90000000 	adrp	x0, 80000 <__start>
   803e0:	91240000 	add	x0, x0, #0x900
   803e4:	97ffff47 	bl	80100 <uart_puts>
   803e8:	aa1503e0 	mov	x0, x21
   803ec:	97ffff55 	bl	80140 <uart_hex>
   803f0:	90000000 	adrp	x0, 80000 <__start>
   803f4:	91242000 	add	x0, x0, #0x908
   803f8:	97ffff42 	bl	80100 <uart_puts>
   803fc:	aa1703e0 	mov	x0, x23
   80400:	97ffff50 	bl	80140 <uart_hex>
   80404:	90000000 	adrp	x0, 80000 <__start>
   80408:	91244000 	add	x0, x0, #0x910
   8040c:	97ffff3d 	bl	80100 <uart_puts>
   80410:	2a1303e0 	mov	w0, w19
   80414:	97ffff4b 	bl	80140 <uart_hex>
   80418:	52800140 	mov	w0, #0xa                   	// #10
   8041c:	97ffff2d 	bl	800d0 <uart_putc>
   80420:	d2840000 	mov	x0, #0x2000                	// #8192
   80424:	f2a7e400 	movk	x0, #0x3f20, lsl #16
   80428:	b9000018 	str	w24, [x0]
   8042c:	d2840213 	mov	x19, #0x2010                	// #8208
   80430:	f2a7e413 	movk	x19, #0x3f20, lsl #16
   80434:	90000000 	adrp	x0, 80000 <__start>
   80438:	91234000 	add	x0, x0, #0x8d0
   8043c:	b9400277 	ldr	w23, [x19]
   80440:	97ffff30 	bl	80100 <uart_puts>
   80444:	d2840380 	mov	x0, #0x201c                	// #8220
   80448:	f2a7e400 	movk	x0, #0x3f20, lsl #16
   8044c:	b9400000 	ldr	w0, [x0]
   80450:	2a0003e0 	mov	w0, w0
   80454:	97ffff3b 	bl	80140 <uart_hex>
   80458:	52800400 	mov	w0, #0x20                  	// #32
   8045c:	97ffff1d 	bl	800d0 <uart_putc>
   80460:	d2840300 	mov	x0, #0x2018                	// #8216
   80464:	f2a7e400 	movk	x0, #0x3f20, lsl #16
   80468:	b9400000 	ldr	w0, [x0]
   8046c:	2a0003e0 	mov	w0, w0
   80470:	97ffff34 	bl	80140 <uart_hex>
   80474:	52800400 	mov	w0, #0x20                  	// #32
   80478:	97ffff16 	bl	800d0 <uart_putc>
   8047c:	d2840280 	mov	x0, #0x2014                	// #8212
   80480:	f2a7e400 	movk	x0, #0x3f20, lsl #16
   80484:	b9400000 	ldr	w0, [x0]
   80488:	2a0003e0 	mov	w0, w0
   8048c:	97ffff2d 	bl	80140 <uart_hex>
   80490:	52800400 	mov	w0, #0x20                  	// #32
   80494:	97ffff0f 	bl	800d0 <uart_putc>
   80498:	b9400260 	ldr	w0, [x19]
   8049c:	2a0003e0 	mov	w0, w0
   804a0:	97ffff28 	bl	80140 <uart_hex>
   804a4:	52800140 	mov	w0, #0xa                   	// #10
   804a8:	97ffff0a 	bl	800d0 <uart_putc>
   804ac:	d2840000 	mov	x0, #0x2000                	// #8192
   804b0:	f2a7e400 	movk	x0, #0x3f20, lsl #16
   804b4:	b9400000 	ldr	w0, [x0]
   804b8:	377007c0 	tbnz	w0, #14, 805b0 <sdhost_cmd+0x2f0>
   804bc:	2a1703f5 	mov	w21, w23
   804c0:	374802f6 	tbnz	w22, #9, 8051c <sdhost_cmd+0x25c>
   804c4:	7100de9f 	cmp	w20, #0x37
   804c8:	540002a8 	b.hi	8051c <sdhost_cmd+0x25c>  // b.pmore
   804cc:	d2803100 	mov	x0, #0x188                 	// #392
   804d0:	f2a00040 	movk	x0, #0x2, lsl #16
   804d4:	f2e01100 	movk	x0, #0x88, lsl #48
   804d8:	9ad42414 	lsr	x20, x0, x20
   804dc:	36000214 	tbz	w20, #0, 8051c <sdhost_cmd+0x25c>
   804e0:	90000000 	adrp	x0, 80000 <__start>
   804e4:	9123a000 	add	x0, x0, #0x8e8
   804e8:	97ffff06 	bl	80100 <uart_puts>
   804ec:	d34932a0 	ubfx	x0, x21, #9, #4
   804f0:	97ffff14 	bl	80140 <uart_hex>
   804f4:	37280757 	tbnz	w23, #5, 805dc <sdhost_cmd+0x31c>
   804f8:	52800140 	mov	w0, #0xa                   	// #10
   804fc:	97fffef5 	bl	800d0 <uart_putc>
   80500:	aa1503e0 	mov	x0, x21
   80504:	f9401fb8 	ldr	x24, [x29, #56]
   80508:	a942dfb6 	ldp	x22, x23, [x29, #40]
   8050c:	a94153f3 	ldp	x19, x20, [sp, #16]
   80510:	f94013f5 	ldr	x21, [sp, #32]
   80514:	a8c47bfd 	ldp	x29, x30, [sp], #64
   80518:	d65f03c0 	ret
   8051c:	aa1503e0 	mov	x0, x21
   80520:	f9401fb8 	ldr	x24, [x29, #56]
   80524:	a942dfb6 	ldp	x22, x23, [x29, #40]
   80528:	a94153f3 	ldp	x19, x20, [sp, #16]
   8052c:	f94013f5 	ldr	x21, [sp, #32]
   80530:	a8c47bfd 	ldp	x29, x30, [sp], #64
   80534:	d65f03c0 	ret
   80538:	52904055 	mov	w21, #0x8202                	// #33282
   8053c:	d2800057 	mov	x23, #0x2                   	// #2
   80540:	d2904018 	mov	x24, #0x8200                	// #33280
   80544:	52804056 	mov	w22, #0x202                 	// #514
   80548:	90000000 	adrp	x0, 80000 <__start>
   8054c:	91240000 	add	x0, x0, #0x900
   80550:	97fffeec 	bl	80100 <uart_puts>
   80554:	aa1803e0 	mov	x0, x24
   80558:	97fffefa 	bl	80140 <uart_hex>
   8055c:	90000000 	adrp	x0, 80000 <__start>
   80560:	91242000 	add	x0, x0, #0x908
   80564:	97fffee7 	bl	80100 <uart_puts>
   80568:	aa1703e0 	mov	x0, x23
   8056c:	97fffef5 	bl	80140 <uart_hex>
   80570:	90000000 	adrp	x0, 80000 <__start>
   80574:	91244000 	add	x0, x0, #0x910
   80578:	97fffee2 	bl	80100 <uart_puts>
   8057c:	2a1303e0 	mov	w0, w19
   80580:	97fffef0 	bl	80140 <uart_hex>
   80584:	52800140 	mov	w0, #0xa                   	// #10
   80588:	97fffed2 	bl	800d0 <uart_putc>
   8058c:	d2840000 	mov	x0, #0x2000                	// #8192
   80590:	f2a7e400 	movk	x0, #0x3f20, lsl #16
   80594:	b9000015 	str	w21, [x0]
   80598:	17ffffa5 	b	8042c <sdhost_cmd+0x16c>
   8059c:	529100f5 	mov	w21, #0x8807                	// #34823
   805a0:	d28000f7 	mov	x23, #0x7                   	// #7
   805a4:	d2910018 	mov	x24, #0x8800                	// #34816
   805a8:	528100f6 	mov	w22, #0x807                 	// #2055
   805ac:	17ffffe7 	b	80548 <sdhost_cmd+0x288>
   805b0:	d2800015 	mov	x21, #0x0                   	// #0
   805b4:	90000000 	adrp	x0, 80000 <__start>
   805b8:	91236000 	add	x0, x0, #0x8d8
   805bc:	97fffed1 	bl	80100 <uart_puts>
   805c0:	aa1503e0 	mov	x0, x21
   805c4:	f9401fb8 	ldr	x24, [x29, #56]
   805c8:	a942dfb6 	ldp	x22, x23, [x29, #40]
   805cc:	a94153f3 	ldp	x19, x20, [sp, #16]
   805d0:	f94013f5 	ldr	x21, [sp, #32]
   805d4:	a8c47bfd 	ldp	x29, x30, [sp], #64
   805d8:	d65f03c0 	ret
   805dc:	90000000 	adrp	x0, 80000 <__start>
   805e0:	9123c000 	add	x0, x0, #0x8f0
   805e4:	97fffec7 	bl	80100 <uart_puts>
   805e8:	17ffffc4 	b	804f8 <sdhost_cmd+0x238>
   805ec:	927a0e95 	and	x21, x20, #0x3c0
   805f0:	92401697 	and	x23, x20, #0x3f
   805f4:	b27102b5 	orr	x21, x21, #0x8000
   805f8:	321102d8 	orr	w24, w22, #0x8000
   805fc:	17ffff78 	b	803dc <sdhost_cmd+0x11c>

0000000000080600 <sdhost_init>:
   80600:	a9bc7bfd 	stp	x29, x30, [sp, #-64]!
   80604:	d2800202 	mov	x2, #0x10                  	// #16
   80608:	f2a7e402 	movk	x2, #0x3f20, lsl #16
   8060c:	910003fd 	mov	x29, sp
   80610:	b9400041 	ldr	w1, [x2]
   80614:	52a48003 	mov	w3, #0x24000000            	// #603979776
   80618:	a90153f3 	stp	x19, x20, [sp, #16]
   8061c:	d2801294 	mov	x20, #0x94                  	// #148
   80620:	f2a7e414 	movk	x20, #0x3f20, lsl #16
   80624:	a9025bf5 	stp	x21, x22, [sp, #32]
   80628:	2a030021 	orr	w1, w1, w3
   8062c:	f9001bf7 	str	x23, [sp, #48]
   80630:	52800055 	mov	w21, #0x2                   	// #2
   80634:	b9000041 	str	w1, [x2]
   80638:	d2801393 	mov	x19, #0x9c                  	// #156
   8063c:	f2a7e413 	movk	x19, #0x3f20, lsl #16
   80640:	b9000295 	str	w21, [x20]
   80644:	528012c0 	mov	w0, #0x96                  	// #150
   80648:	d2840616 	mov	x22, #0x2030                	// #8240
   8064c:	f2a7e416 	movk	x22, #0x3f20, lsl #16
   80650:	97ffff10 	bl	80290 <wait_cycles>
   80654:	d2840717 	mov	x23, #0x2038                	// #8248
   80658:	f2a7e417 	movk	x23, #0x3f20, lsl #16
   8065c:	52a00060 	mov	w0, #0x30000               	// #196608
   80660:	b9000260 	str	w0, [x19]
   80664:	528012c0 	mov	w0, #0x96                  	// #150
   80668:	97ffff0a 	bl	80290 <wait_cycles>
   8066c:	b900029f 	str	wzr, [x20]
   80670:	b900027f 	str	wzr, [x19]
   80674:	d2800282 	mov	x2, #0x14                  	// #20
   80678:	f2a7e402 	movk	x2, #0x3f20, lsl #16
   8067c:	52812483 	mov	w3, #0x924                 	// #2340
   80680:	528012c0 	mov	w0, #0x96                  	// #150
   80684:	b9400041 	ldr	w1, [x2]
   80688:	2a030021 	orr	w1, w1, w3
   8068c:	b9000041 	str	w1, [x2]
   80690:	b9000295 	str	w21, [x20]
   80694:	97fffeff 	bl	80290 <wait_cycles>
   80698:	52a00780 	mov	w0, #0x3c0000              	// #3932160
   8069c:	b9000260 	str	w0, [x19]
   806a0:	528012c0 	mov	w0, #0x96                  	// #150
   806a4:	97fffefb 	bl	80290 <wait_cycles>
   806a8:	b900029f 	str	wzr, [x20]
   806ac:	b900027f 	str	wzr, [x19]
   806b0:	d2840001 	mov	x1, #0x2000                	// #8192
   806b4:	f2a7e401 	movk	x1, #0x3f20, lsl #16
   806b8:	b90002df 	str	wzr, [x22]
   806bc:	d2840080 	mov	x0, #0x2004                	// #8196
   806c0:	f2a7e400 	movk	x0, #0x3f20, lsl #16
   806c4:	b900003f 	str	wzr, [x1]
   806c8:	d2840102 	mov	x2, #0x2008                	// #8200
   806cc:	f2a7e402 	movk	x2, #0x3f20, lsl #16
   806d0:	b900001f 	str	wzr, [x0]
   806d4:	52a01e03 	mov	w3, #0xf00000              	// #15728640
   806d8:	b9000043 	str	w3, [x2]
   806dc:	5280ff22 	mov	w2, #0x7f9                 	// #2041
   806e0:	b9000c3f 	str	wzr, [x1, #12]
   806e4:	52810803 	mov	w3, #0x840                 	// #2112
   806e8:	b9001c02 	str	w2, [x0, #28]
   806ec:	d2840682 	mov	x2, #0x2034                	// #8244
   806f0:	f2a7e402 	movk	x2, #0x3f20, lsl #16
   806f4:	b90002ff 	str	wzr, [x23]
   806f8:	b9003c3f 	str	wzr, [x1, #60]
   806fc:	b9004c1f 	str	wzr, [x0, #76]
   80700:	52800280 	mov	w0, #0x14                  	// #20
   80704:	b9400041 	ldr	w1, [x2]
   80708:	121c2421 	and	w1, w1, #0x3ff0
   8070c:	2a030021 	orr	w1, w1, w3
   80710:	b9000041 	str	w1, [x2]
   80714:	97fffee7 	bl	802b0 <wait_msec>
   80718:	52800020 	mov	w0, #0x1                   	// #1
   8071c:	b90002c0 	str	w0, [x22]
   80720:	52800280 	mov	w0, #0x14                  	// #20
   80724:	97fffee3 	bl	802b0 <wait_msec>
   80728:	52808000 	mov	w0, #0x400                 	// #1024
   8072c:	b90002e0 	str	w0, [x23]
   80730:	52800001 	mov	w1, #0x0                   	// #0
   80734:	52800000 	mov	w0, #0x0                   	// #0
   80738:	97fffee2 	bl	802c0 <sdhost_cmd>
   8073c:	52803541 	mov	w1, #0x1aa                 	// #426
   80740:	52800100 	mov	w0, #0x8                   	// #8
   80744:	97fffedf 	bl	802c0 <sdhost_cmd>
   80748:	52800001 	mov	w1, #0x0                   	// #0
   8074c:	528006e0 	mov	w0, #0x37                  	// #55
   80750:	97fffedc 	bl	802c0 <sdhost_cmd>
   80754:	52900001 	mov	w1, #0x8000                	// #32768
   80758:	72aa3fe1 	movk	w1, #0x51ff, lsl #16
   8075c:	52800520 	mov	w0, #0x29                  	// #41
   80760:	97fffed8 	bl	802c0 <sdhost_cmd>
   80764:	52800001 	mov	w1, #0x0                   	// #0
   80768:	2a1503e0 	mov	w0, w21
   8076c:	97fffed5 	bl	802c0 <sdhost_cmd>
   80770:	52800001 	mov	w1, #0x0                   	// #0
   80774:	52800060 	mov	w0, #0x3                   	// #3
   80778:	97fffed2 	bl	802c0 <sdhost_cmd>
   8077c:	f9401bf7 	ldr	x23, [sp, #48]
   80780:	b0000001 	adrp	x1, 81000 <__bss_start>
   80784:	92703c00 	and	x0, x0, #0xffff0000
   80788:	a94153f3 	ldp	x19, x20, [sp, #16]
   8078c:	f9000020 	str	x0, [x1]
   80790:	a9425bf5 	ldp	x21, x22, [sp, #32]
   80794:	a8c47bfd 	ldp	x29, x30, [sp], #64
   80798:	d65f03c0 	ret
   8079c:	d503201f 	nop

00000000000807a0 <sdhost_cardselect>:
   807a0:	a9be7bfd 	stp	x29, x30, [sp, #-32]!
   807a4:	528000e0 	mov	w0, #0x7                   	// #7
   807a8:	910003fd 	mov	x29, sp
   807ac:	a90153f3 	stp	x19, x20, [sp, #16]
   807b0:	b0000014 	adrp	x20, 81000 <__bss_start>
   807b4:	91000293 	add	x19, x20, #0x0
   807b8:	b9400281 	ldr	w1, [x20]
   807bc:	97fffec1 	bl	802c0 <sdhost_cmd>
   807c0:	b9400281 	ldr	w1, [x20]
   807c4:	528006e0 	mov	w0, #0x37                  	// #55
   807c8:	97fffebe 	bl	802c0 <sdhost_cmd>
   807cc:	52800001 	mov	w1, #0x0                   	// #0
   807d0:	52800660 	mov	w0, #0x33                  	// #51
   807d4:	97fffebb 	bl	802c0 <sdhost_cmd>
   807d8:	d2840801 	mov	x1, #0x2040                	// #8256
   807dc:	f2a7e401 	movk	x1, #0x3f20, lsl #16
   807e0:	90000000 	adrp	x0, 80000 <__start>
   807e4:	91246000 	add	x0, x0, #0x918
   807e8:	b9400022 	ldr	w2, [x1]
   807ec:	b9400021 	ldr	w1, [x1]
   807f0:	29010662 	stp	w2, w1, [x19, #8]
   807f4:	97fffe43 	bl	80100 <uart_puts>
   807f8:	b9800a60 	ldrsw	x0, [x19, #8]
   807fc:	97fffe51 	bl	80140 <uart_hex>
   80800:	52800400 	mov	w0, #0x20                  	// #32
   80804:	97fffe33 	bl	800d0 <uart_putc>
   80808:	b9800e60 	ldrsw	x0, [x19, #12]
   8080c:	97fffe4d 	bl	80140 <uart_hex>
   80810:	52800400 	mov	w0, #0x20                  	// #32
   80814:	97fffe2f 	bl	800d0 <uart_putc>
   80818:	a94153f3 	ldp	x19, x20, [sp, #16]
   8081c:	52800140 	mov	w0, #0xa                   	// #10
   80820:	a8c27bfd 	ldp	x29, x30, [sp], #32
   80824:	17fffe2b 	b	800d0 <uart_putc>
   80828:	d503201f 	nop
   8082c:	d503201f 	nop

0000000000080830 <sdhost_readblock>:
   80830:	d10843ff 	sub	sp, sp, #0x210
   80834:	52800001 	mov	w1, #0x0                   	// #0
   80838:	52800220 	mov	w0, #0x11                  	// #17
   8083c:	a9007bfd 	stp	x29, x30, [sp]
   80840:	910003fd 	mov	x29, sp
   80844:	97fffe9f 	bl	802c0 <sdhost_cmd>
   80848:	910043a0 	add	x0, x29, #0x10
   8084c:	d2840803 	mov	x3, #0x2040                	// #8256
   80850:	f2a7e403 	movk	x3, #0x3f20, lsl #16
   80854:	d2800001 	mov	x1, #0x0                   	// #0
   80858:	b9400062 	ldr	w2, [x3]
   8085c:	b8217802 	str	w2, [x0, x1, lsl #2]
   80860:	91000421 	add	x1, x1, #0x1
   80864:	f102003f 	cmp	x1, #0x80
   80868:	54ffff81 	b.ne	80858 <sdhost_readblock+0x28>  // b.any
   8086c:	97fffe49 	bl	80190 <uart_dump>
   80870:	a9407bfd 	ldp	x29, x30, [sp]
   80874:	910843ff 	add	sp, sp, #0x210
   80878:	d65f03c0 	ret
   8087c:	d503201f 	nop

0000000000080880 <kernel_main>:
   80880:	90000000 	adrp	x0, 80000 <__start>
   80884:	91248000 	add	x0, x0, #0x920
   80888:	a9bf7bfd 	stp	x29, x30, [sp, #-16]!
   8088c:	910003fd 	mov	x29, sp
   80890:	97fffe1c 	bl	80100 <uart_puts>
   80894:	97ffff5b 	bl	80600 <sdhost_init>
   80898:	97ffffc2 	bl	807a0 <sdhost_cardselect>
   8089c:	97ffffe5 	bl	80830 <sdhost_readblock>
   808a0:	d503207f 	wfi
   808a4:	d503207f 	wfi
   808a8:	17fffffe 	b	808a0 <kernel_main+0x20>

Disassembly of section .rodata.str1.8:

00000000000808b0 <.rodata.str1.8>:
   808b0:	33323130 	.word	0x33323130
   808b4:	37363534 	.word	0x37363534
   808b8:	42413938 	.word	0x42413938
   808bc:	46454453 	.word	0x46454453
	...
   808c8:	0000203a 	.word	0x0000203a
   808cc:	00000000 	.word	0x00000000
   808d0:	70736572 	.word	0x70736572
   808d4:	00000020 	.word	0x00000020
   808d8:	6d636473 	.word	0x6d636473
   808dc:	61662064 	.word	0x61662064
   808e0:	000a6c69 	.word	0x000a6c69
   808e4:	00000000 	.word	0x00000000
   808e8:	74617473 	.word	0x74617473
   808ec:	00002065 	.word	0x00002065
   808f0:	50504120 	.word	0x50504120
   808f4:	444d435f 	.word	0x444d435f
   808f8:	00000020 	.word	0x00000020
   808fc:	00000000 	.word	0x00000000
   80900:	20676c66 	.word	0x20676c66
   80904:	00000020 	.word	0x00000020
   80908:	646d6320 	.word	0x646d6320
   8090c:	00000020 	.word	0x00000020
   80910:	67726120 	.word	0x67726120
   80914:	00000020 	.word	0x00000020
   80918:	20524353 	.word	0x20524353
   8091c:	00000000 	.word	0x00000000
   80920:	6f686473 	.word	0x6f686473
   80924:	32307473 	.word	0x32307473
   80928:	0000000a 	.word	0x0000000a
   8092c:	00000000 	.word	0x00000000

Disassembly of section .bss:

0000000000081000 <__bss_start>:
	...

0000000000081008 <sd_scr>:
	...

Disassembly of section .comment:

0000000000000000 <.comment>:
   0:	3a434347 	ccmn	w26, w3, #0x7, mi  // mi = first
   4:	694c2820 	ldpsw	x0, x10, [x1, #96]
   8:	6f72616e 	umlsl2	v14.4s, v11.8h, v2.h[3]
   c:	43434720 	.inst	0x43434720 ; undefined
  10:	322e3720 	orr	w0, w25, #0xfffc0000
  14:	3130322d 	adds	w13, w17, #0xc0c
  18:	31312e37 	adds	w23, w17, #0xc4b
  1c:	2e372029 	usubl	v9.8h, v1.8b, v23.8b
  20:	20312e32 	.inst	0x20312e32 ; undefined
  24:	37313032 	tbnz	w18, #6, 2628 <__bss_size+0x2428>
  28:	31313031 	adds	w17, w1, #0xc4c
	...
